target datalayout = "e-m:e-p270:32:32-p271:32:32-p272:64:64-i64:64-i128:128-f80:128-n8:16:32:64-S128"
target triple = "x86_64-unknown-linux-gnu"

%"struct.cvc5::internal::options::HolderSMT" = type <{ i8, i8, i8, i8, i8, i8, [2 x i8], i64, i8, i8, i8, i8, i8, i8, i8, i8, i8, i8, i8, i8, i8, i8, i8, i8, i32, i8, [3 x i8], double, i8, [3 x i8], i32, i8, i8, i8, i8, i32, i8, i8, i8, i8, i32, i8, [3 x i8], i32, i8, i8, i8, i8, i8, i8, i8, i8, i32, i8, i8, i8, i8, i8, i8, i8, i8, i8, i8, i8, i8, i8, i8, i8, i8, i8, i8, i8, i8, i8, i8, i8, i8, i8, i8, i8, i8, i32, i8, i8, i8, i8, i8, i8, i8, i8, i32, i8, i8, i8, i8, i32, i8, [7 x i8], i64, i8, i8, i8, i8, i8, i8, i8, i8, i64, i8, i8, i8, i8, i32, i8, [7 x i8] }>
%"struct.cvc5::internal::options::HolderPROOF" = type <{ i8, i8, i8, i8, i8, i8, i8, i8, i8, i8, i8, i8, i8, i8, i8, i8, i32, i8, i8, i8, i8, i32, i8, [3 x i8], i32, i8, [3 x i8], i64, i8, i8, i8, i8, i8, i8, i8, i8, i64, i8, [7 x i8] }>

; Function Attrs: mustprogress uwtable
define hidden void @_ZN4cvc58internal3smt11SetDefaults15disableCheckingERNS0_7OptionsE(ptr noundef nonnull align 8 dereferenceable(392) %opts) #4 align 2 {
entry:
  %opts.addr = alloca ptr, align 8
  store ptr %opts, ptr %opts.addr, align 8
  %0 = load ptr, ptr %opts.addr, align 8
  %call = call noundef nonnull align 8 dereferenceable(185) ptr @_ZN4cvc58internal7Options8writeSmtEv(ptr noundef nonnull align 8 dereferenceable(392) %0)
  %checkUnsatCores = getelementptr inbounds %"struct.cvc5::internal::options::HolderSMT", ptr %call, i32 0, i32 19
  store i8 0, ptr %checkUnsatCores, align 1
  %1 = load ptr, ptr %opts.addr, align 8
  %call1 = call noundef nonnull align 8 dereferenceable(185) ptr @_ZN4cvc58internal7Options8writeSmtEv(ptr noundef nonnull align 8 dereferenceable(392) %1)
  %produceProofs = getelementptr inbounds %"struct.cvc5::internal::options::HolderSMT", ptr %call1, i32 0, i32 74
  store i8 0, ptr %produceProofs, align 1
  %2 = load ptr, ptr %opts.addr, align 8
  %call2 = call noundef nonnull align 8 dereferenceable(185) ptr @_ZN4cvc58internal7Options8writeSmtEv(ptr noundef nonnull align 8 dereferenceable(392) %2)
  %checkProofs = getelementptr inbounds %"struct.cvc5::internal::options::HolderSMT", ptr %call2, i32 0, i32 15
  store i8 0, ptr %checkProofs, align 1
  %3 = load ptr, ptr %opts.addr, align 8
  %call3 = call noundef nonnull align 8 dereferenceable(185) ptr @_ZN4cvc58internal7Options8writeSmtEv(ptr noundef nonnull align 8 dereferenceable(392) %3)
  %debugCheckModels = getelementptr inbounds %"struct.cvc5::internal::options::HolderSMT", ptr %call3, i32 0, i32 21
  store i8 0, ptr %debugCheckModels, align 1
  %4 = load ptr, ptr %opts.addr, align 8
  %call4 = call noundef nonnull align 8 dereferenceable(185) ptr @_ZN4cvc58internal7Options8writeSmtEv(ptr noundef nonnull align 8 dereferenceable(392) %4)
  %checkModels = getelementptr inbounds %"struct.cvc5::internal::options::HolderSMT", ptr %call4, i32 0, i32 13
  store i8 0, ptr %checkModels, align 1
  %5 = load ptr, ptr %opts.addr, align 8
  %call5 = call noundef nonnull align 8 dereferenceable(65) ptr @_ZN4cvc58internal7Options10writeProofEv(ptr noundef nonnull align 8 dereferenceable(392) %5)
  %checkProofSteps = getelementptr inbounds %"struct.cvc5::internal::options::HolderPROOF", ptr %call5, i32 0, i32 2
  store i8 0, ptr %checkProofSteps, align 2
  ret void
}