; Function Attrs: mustprogress uwtable
define hidden void @_ZN4cvc58internal3smt11SetDefaults15disableCheckingERNS0_7OptionsE(ptr noundef nonnull align 8 dereferenceable(392) %opts) local_unnamed_addr #3 align 2 {
entry:
  %call = tail call noundef nonnull align 8 dereferenceable(185) ptr @_ZN4cvc58internal7Options8writeSmtEv(ptr noundef nonnull align 8 dereferenceable(392) %opts)
  %checkUnsatCores = getelementptr inbounds i8, ptr %call, i64 27
  store i8 0, ptr %checkUnsatCores, align 1
  %call1 = tail call noundef nonnull align 8 dereferenceable(185) ptr @_ZN4cvc58internal7Options8writeSmtEv(ptr noundef nonnull align 8 dereferenceable(392) %opts)
  %produceProofs = getelementptr inbounds i8, ptr %call1, i64 113
  store i8 0, ptr %produceProofs, align 1
  %call2 = tail call noundef nonnull align 8 dereferenceable(185) ptr @_ZN4cvc58internal7Options8writeSmtEv(ptr noundef nonnull align 8 dereferenceable(392) %opts)
  %checkProofs = getelementptr inbounds i8, ptr %call2, i64 23
  store i8 0, ptr %checkProofs, align 1
  %call3 = tail call noundef nonnull align 8 dereferenceable(185) ptr @_ZN4cvc58internal7Options8writeSmtEv(ptr noundef nonnull align 8 dereferenceable(392) %opts)
  %debugCheckModels = getelementptr inbounds i8, ptr %call3, i64 29
  store i8 0, ptr %debugCheckModels, align 1
  %call4 = tail call noundef nonnull align 8 dereferenceable(185) ptr @_ZN4cvc58internal7Options8writeSmtEv(ptr noundef nonnull align 8 dereferenceable(392) %opts)
  %checkModels = getelementptr inbounds i8, ptr %call4, i64 21
  store i8 0, ptr %checkModels, align 1
  %call5 = tail call noundef nonnull align 8 dereferenceable(65) ptr @_ZN4cvc58internal7Options10writeProofEv(ptr noundef nonnull align 8 dereferenceable(392) %opts)
  %checkProofSteps = getelementptr inbounds i8, ptr %call5, i64 2
  store i8 0, ptr %checkProofSteps, align 2
  ret void
}